; Function Attrs: mustprogress nofree norecurse nosync nounwind willreturn memory(read, inaccessiblemem: none) uwtable
define range(i32 0, 2) i32 @PQconnectionNeedsPassword(ptr noundef readonly captures(address_is_null) %0) local_unnamed_addr #15 {
  %.not = icmp eq ptr %0, null
  br i1 %.not, label %22, label %2

2:                                                ; preds = %1
  %3 = getelementptr inbounds nuw i8, ptr %0, i64 480
  %4 = load ptr, ptr %3, align 8
  %.not12.i = icmp eq ptr %4, null
  br i1 %.not12.i, label %.thread.i, label %5

5:                                                ; preds = %2
  %6 = getelementptr inbounds nuw i8, ptr %0, i64 476
  %7 = load i32, ptr %6, align 4
  %8 = sext i32 %7 to i64
  %9 = getelementptr inbounds %struct.pg_conn_host, ptr %4, i64 %8, i32 4
  %10 = load ptr, ptr %9, align 8
  %11 = icmp eq ptr %10, null
  br i1 %11, label %.thread.i, label %PQpass.exit

.thread.i:                                        ; preds = %5, %2
  %12 = getelementptr inbounds nuw i8, ptr %0, i64 104
  %13 = load ptr, ptr %12, align 8
  br label %PQpass.exit

PQpass.exit:                                      ; preds = %5, %.thread.i
  %.1.i = phi ptr [ %13, %.thread.i ], [ %10, %5 ]
  %14 = getelementptr inbounds nuw i8, ptr %0, i64 809
  %15 = load i8, ptr %14, align 1, !range !13, !noundef !14
  %16 = trunc nuw i8 %15 to i1
  br i1 %16, label %17, label %21

17:                                               ; preds = %PQpass.exit
  %18 = icmp eq ptr %.1.i, null
  %spec.store.select.i = select i1 %18, ptr @.str.55, ptr %.1.i
  %19 = load i8, ptr %spec.store.select.i, align 1
  %20 = icmp eq i8 %19, 0
  br i1 %20, label %22, label %21

21:                                               ; preds = %17, %PQpass.exit
  br label %22

22:                                               ; preds = %17, %1, %21
  %.0 = phi i32 [ 0, %21 ], [ 0, %1 ], [ 1, %17 ]
  ret i32 %.0
}